; Function Attrs: mustprogress sspstrong uwtable
define noundef zeroext i1 @_Z17check_constraintsP8py_annoyib(ptr noundef readonly captures(none) %0, i32 noundef %1, i1 noundef zeroext %2) local_unnamed_addr #2 {
  %4 = icmp slt i32 %1, 0
  br i1 %4, label %.sink.split, label %5

5:                                                ; preds = %3
  br i1 %2, label %14, label %6

6:                                                ; preds = %5
  %7 = getelementptr inbounds nuw i8, ptr %0, i64 24
  %8 = load ptr, ptr %7, align 8, !tbaa !25
  %9 = load ptr, ptr %8, align 8, !tbaa !28
  %10 = getelementptr inbounds nuw i8, ptr %9, i64 88
  %11 = load ptr, ptr %10, align 8
  %12 = tail call noundef i32 %11(ptr noundef nonnull align 8 dereferenceable(8) %8)
  %.not = icmp slt i32 %1, %12
  br i1 %.not, label %14, label %.sink.split

.sink.split:                                      ; preds = %6, %3
  %.str.1.sink = phi ptr [ @.str, %3 ], [ @.str.1, %6 ]
  %13 = load ptr, ptr @PyExc_IndexError, align 8, !tbaa !30
  tail call void @PyErr_SetString(ptr noundef %13, ptr noundef nonnull %.str.1.sink)
  br label %14

14:                                               ; preds = %.sink.split, %5, %6
  %.0 = phi i1 [ true, %6 ], [ true, %5 ], [ false, %.sink.split ]
  ret i1 %.0
}